; Function Attrs: mustprogress nounwind uwtable
define internal noundef zeroext i1 @"_ZNSt17_Function_handlerIFbRK11cmCMakePathEZN12_GLOBAL__N_120HandleHasStemCommandERKSt6vectorINSt7__cxx1112basic_stringIcSt11char_traitsIcESaIcEEESaISB_EER17cmExecutionStatusE3$_0E9_M_invokeERKSt9_Any_dataS2_"(ptr nonnull readnone align 8 captures(none) %0, ptr noundef nonnull align 8 dereferenceable(40) %1) #4 align 2 {
  %3 = tail call { ptr, i64 } @_ZNKSt10filesystem7__cxx114path17_M_find_extensionEv(ptr noundef nonnull align 8 dereferenceable(40) %1) #21
  %4 = extractvalue { ptr, i64 } %3, 0
  %5 = extractvalue { ptr, i64 } %3, 1
  %6 = icmp ne ptr %4, null
  %7 = icmp ne i64 %5, 0
  %8 = select i1 %6, i1 %7, i1 false
  ret i1 %8
}